target datalayout = "e-m:e-p270:32:32-p271:32:32-p272:64:64-i64:64-i128:128-f80:128-n8:16:32:64-S128"
target triple = "x86_64-pc-linux-gnu"

%"class.icu_77::EmojiProps" = type { ptr, ptr, [6 x ptr] }

@.str.1 = private unnamed_addr constant [4 x i8] c"icu\00", align 1
@.str.2 = private unnamed_addr constant [7 x i8] c"uemoji\00", align 1

; Function Attrs: mustprogress nounwind uwtable
define linkonce_odr noundef i32 @_ZN6icu_7710EmojiProps18getStringTrieIndexEi(i32 noundef %0) #0 comdat align 2 {
  %2 = alloca i32, align 4
  store i32 %0, ptr %2, align 4, !tbaa !37
  %3 = load i32, ptr %2, align 4, !tbaa !37
  %4 = sub nsw i32 %3, 4
  ret i32 %4
}

; Function Attrs: inlinehint mustprogress nounwind uwtable
define internal noundef signext i8 @_ZL9U_FAILURE10UErrorCode(i32 noundef %0) #4 {
  %2 = alloca i32, align 4
  store i32 %0, ptr %2, align 4, !tbaa !14
  %3 = load i32, ptr %2, align 4, !tbaa !14
  %4 = icmp sgt i32 %3, 0
  %5 = zext i1 %4 to i8
  ret i8 %5
}

; Function Attrs: mustprogress uwtable
define void @_ZN6icu_7710EmojiProps4loadER10UErrorCode(ptr noundef nonnull align 8 dereferenceable(64) %0, ptr noundef nonnull align 4 dereferenceable(4) %1) #3 align 2 {
  %3 = alloca ptr, align 8
  %4 = alloca ptr, align 8
  %5 = alloca ptr, align 8
  %6 = alloca ptr, align 8
  %7 = alloca i32, align 4
  %8 = alloca i32, align 4
  %9 = alloca i32, align 4
  %10 = alloca i32, align 4
  %11 = alloca i32, align 4
  %12 = alloca ptr, align 8
  store ptr %0, ptr %3, align 8, !tbaa !3
  store ptr %1, ptr %4, align 8, !tbaa !13
  %13 = load ptr, ptr %3, align 8
  %14 = load ptr, ptr %4, align 8, !tbaa !13
  %15 = call ptr @udata_openChoice_77(ptr noundef null, ptr noundef @.str.1, ptr noundef @.str.2, ptr noundef @_ZN6icu_7710EmojiProps12isAcceptableEPvPKcS3_PK9UDataInfo, ptr noundef %13, ptr noundef %14)
  %16 = getelementptr inbounds nuw %"class.icu_77::EmojiProps", ptr %13, i32 0, i32 0
  store ptr %15, ptr %16, align 8, !tbaa !8
  %17 = load ptr, ptr %4, align 8, !tbaa !13
  %18 = load i32, ptr %17, align 4, !tbaa !14
  %19 = call noundef signext i8 @_ZL9U_FAILURE10UErrorCode(i32 noundef %18)
  %20 = icmp ne i8 %19, 0
  br i1 %20, label %21, label %22

21:                                               ; preds = %2
  br label %102

22:                                               ; preds = %2
  call void @llvm.lifetime.start.p0(i64 8, ptr %5) #11
  %23 = getelementptr inbounds nuw %"class.icu_77::EmojiProps", ptr %13, i32 0, i32 0
  %24 = load ptr, ptr %23, align 8, !tbaa !8
  %25 = call ptr @udata_getMemory_77(ptr noundef %24)
  store ptr %25, ptr %5, align 8, !tbaa !23
  call void @llvm.lifetime.start.p0(i64 8, ptr %6) #11
  %26 = load ptr, ptr %5, align 8, !tbaa !23
  store ptr %26, ptr %6, align 8, !tbaa !35
  call void @llvm.lifetime.start.p0(i64 4, ptr %7) #11
  %27 = load ptr, ptr %6, align 8, !tbaa !35
  %28 = getelementptr inbounds nuw i32, ptr %27, i64 0
  %29 = load i32, ptr %28, align 4, !tbaa !37
  %30 = sdiv i32 %29, 4
  store i32 %30, ptr %7, align 4, !tbaa !37
  %31 = load i32, ptr %7, align 4, !tbaa !37
  %32 = icmp sle i32 %31, 9
  br i1 %32, label %33, label %35

33:                                               ; preds = %22
  %34 = load ptr, ptr %4, align 8, !tbaa !13
  store i32 3, ptr %34, align 4, !tbaa !14
  store i32 1, ptr %8, align 4
  br label %100

35:                                               ; preds = %22
  call void @llvm.lifetime.start.p0(i64 4, ptr %9) #11
  store i32 0, ptr %9, align 4, !tbaa !37
  call void @llvm.lifetime.start.p0(i64 4, ptr %10) #11
  %36 = load ptr, ptr %6, align 8, !tbaa !35
  %37 = load i32, ptr %9, align 4, !tbaa !37
  %38 = add nsw i32 %37, 1
  store i32 %38, ptr %9, align 4, !tbaa !37
  %39 = sext i32 %37 to i64
  %40 = getelementptr inbounds i32, ptr %36, i64 %39
  %41 = load i32, ptr %40, align 4, !tbaa !37
  store i32 %41, ptr %10, align 4, !tbaa !37
  call void @llvm.lifetime.start.p0(i64 4, ptr %11) #11
  %42 = load ptr, ptr %6, align 8, !tbaa !35
  %43 = load i32, ptr %9, align 4, !tbaa !37
  %44 = sext i32 %43 to i64
  %45 = getelementptr inbounds i32, ptr %42, i64 %44
  %46 = load i32, ptr %45, align 4, !tbaa !37
  store i32 %46, ptr %11, align 4, !tbaa !37
  %47 = load ptr, ptr %5, align 8, !tbaa !23
  %48 = load i32, ptr %10, align 4, !tbaa !37
  %49 = sext i32 %48 to i64
  %50 = getelementptr inbounds i8, ptr %47, i64 %49
  %51 = load i32, ptr %11, align 4, !tbaa !37
  %52 = load i32, ptr %10, align 4, !tbaa !37
  %53 = sub nsw i32 %51, %52
  %54 = load ptr, ptr %4, align 8, !tbaa !13
  %55 = call ptr @ucptrie_openFromBinary_77(i32 noundef 0, i32 noundef 2, ptr noundef %50, i32 noundef %53, ptr noundef null, ptr noundef %54)
  %56 = getelementptr inbounds nuw %"class.icu_77::EmojiProps", ptr %13, i32 0, i32 1
  store ptr %55, ptr %56, align 8, !tbaa !12
  %57 = load ptr, ptr %4, align 8, !tbaa !13
  %58 = load i32, ptr %57, align 4, !tbaa !14
  %59 = call noundef signext i8 @_ZL9U_FAILURE10UErrorCode(i32 noundef %58)
  %60 = icmp ne i8 %59, 0
  br i1 %60, label %61, label %62

61:                                               ; preds = %35
  store i32 1, ptr %8, align 4
  br label %99

62:                                               ; preds = %35
  store i32 4, ptr %9, align 4, !tbaa !37
  br label %63

63:                                               ; preds = %95, %62
  %64 = load i32, ptr %9, align 4, !tbaa !37
  %65 = icmp sle i32 %64, 9
  br i1 %65, label %66, label %98

66:                                               ; preds = %63
  %67 = load ptr, ptr %6, align 8, !tbaa !35
  %68 = load i32, ptr %9, align 4, !tbaa !37
  %69 = sext i32 %68 to i64
  %70 = getelementptr inbounds i32, ptr %67, i64 %69
  %71 = load i32, ptr %70, align 4, !tbaa !37
  store i32 %71, ptr %10, align 4, !tbaa !37
  %72 = load ptr, ptr %6, align 8, !tbaa !35
  %73 = load i32, ptr %9, align 4, !tbaa !37
  %74 = add nsw i32 %73, 1
  %75 = sext i32 %74 to i64
  %76 = getelementptr inbounds i32, ptr %72, i64 %75
  %77 = load i32, ptr %76, align 4, !tbaa !37
  store i32 %77, ptr %11, align 4, !tbaa !37
  call void @llvm.lifetime.start.p0(i64 8, ptr %12) #11
  %78 = load i32, ptr %11, align 4, !tbaa !37
  %79 = load i32, ptr %10, align 4, !tbaa !37
  %80 = icmp sgt i32 %78, %79
  br i1 %80, label %81, label %86

81:                                               ; preds = %66
  %82 = load ptr, ptr %5, align 8, !tbaa !23
  %83 = load i32, ptr %10, align 4, !tbaa !37
  %84 = sext i32 %83 to i64
  %85 = getelementptr inbounds i8, ptr %82, i64 %84
  br label %87

86:                                               ; preds = %66
  br label %87

87:                                               ; preds = %86, %81
  %88 = phi ptr [ %85, %81 ], [ null, %86 ]
  store ptr %88, ptr %12, align 8, !tbaa !25
  %89 = load ptr, ptr %12, align 8, !tbaa !25
  %90 = getelementptr inbounds nuw %"class.icu_77::EmojiProps", ptr %13, i32 0, i32 2
  %91 = load i32, ptr %9, align 4, !tbaa !37
  %92 = call noundef i32 @_ZN6icu_7710EmojiProps18getStringTrieIndexEi(i32 noundef %91)
  %93 = sext i32 %92 to i64
  %94 = getelementptr inbounds [6 x ptr], ptr %90, i64 0, i64 %93
  store ptr %89, ptr %94, align 8, !tbaa !25
  call void @llvm.lifetime.end.p0(i64 8, ptr %12) #11
  br label %95

95:                                               ; preds = %87
  %96 = load i32, ptr %9, align 4, !tbaa !37
  %97 = add nsw i32 %96, 1
  store i32 %97, ptr %9, align 4, !tbaa !37
  br label %63, !llvm.loop !38

98:                                               ; preds = %63
  store i32 0, ptr %8, align 4
  br label %99

99:                                               ; preds = %98, %61
  call void @llvm.lifetime.end.p0(i64 4, ptr %11) #11
  call void @llvm.lifetime.end.p0(i64 4, ptr %10) #11
  call void @llvm.lifetime.end.p0(i64 4, ptr %9) #11
  br label %100

100:                                              ; preds = %99, %33
  call void @llvm.lifetime.end.p0(i64 4, ptr %7) #11
  call void @llvm.lifetime.end.p0(i64 8, ptr %6) #11
  call void @llvm.lifetime.end.p0(i64 8, ptr %5) #11
  %101 = load i32, ptr %8, align 4
  switch i32 %101, label %103 [
    i32 0, label %102
    i32 1, label %102
  ]

102:                                              ; preds = %21, %100, %100
  ret void

103:                                              ; preds = %100
  unreachable
}