; Function Attrs: mustprogress uwtable
define void @_ZN6icu_7710EmojiProps4loadER10UErrorCode(ptr noundef nonnull align 8 dereferenceable(64) %0, ptr noundef nonnull align 4 dereferenceable(4) %1) local_unnamed_addr #4 align 2 {
  %3 = tail call ptr @udata_openChoice_77(ptr noundef null, ptr noundef nonnull @.str.1, ptr noundef nonnull @.str.2, ptr noundef nonnull @_ZN6icu_7710EmojiProps12isAcceptableEPvPKcS3_PK9UDataInfo, ptr noundef nonnull %0, ptr noundef nonnull %1)
  store ptr %3, ptr %0, align 8, !tbaa !3
  %4 = load i32, ptr %1, align 4, !tbaa !11
  %5 = icmp slt i32 %4, 1
  br i1 %5, label %6, label %.loopexit

6:                                                ; preds = %2
  %7 = tail call ptr @udata_getMemory_77(ptr noundef %3)
  %8 = load i32, ptr %7, align 4, !tbaa !13
  %9 = icmp slt i32 %8, 40
  br i1 %9, label %10, label %11

10:                                               ; preds = %6
  store i32 3, ptr %1, align 4, !tbaa !11
  br label %.loopexit

11:                                               ; preds = %6
  %12 = getelementptr inbounds nuw i8, ptr %7, i64 4
  %13 = load i32, ptr %12, align 4, !tbaa !13
  %14 = zext nneg i32 %8 to i64
  %15 = getelementptr inbounds nuw i8, ptr %7, i64 %14
  %16 = sub nsw i32 %13, %8
  %17 = tail call ptr @ucptrie_openFromBinary_77(i32 noundef 0, i32 noundef 2, ptr noundef nonnull %15, i32 noundef %16, ptr noundef null, ptr noundef nonnull %1)
  %18 = getelementptr inbounds nuw i8, ptr %0, i64 8
  store ptr %17, ptr %18, align 8, !tbaa !10
  %19 = load i32, ptr %1, align 4, !tbaa !11
  %20 = icmp slt i32 %19, 1
  br i1 %20, label %.preheader, label %.loopexit

.preheader:                                       ; preds = %11
  %21 = getelementptr inbounds nuw i8, ptr %0, i64 16
  %.phi.trans.insert = getelementptr inbounds nuw i8, ptr %7, i64 16
  %.pre = load i32, ptr %.phi.trans.insert, align 4, !tbaa !13
  br label %22

22:                                               ; preds = %.preheader, %22
  %23 = phi i32 [ %.pre, %.preheader ], [ %25, %22 ]
  %indvars.iv = phi i64 [ 4, %.preheader ], [ %indvars.iv.next, %22 ]
  %indvars.iv.next = add nuw nsw i64 %indvars.iv, 1
  %24 = getelementptr inbounds nuw i32, ptr %7, i64 %indvars.iv.next
  %25 = load i32, ptr %24, align 4, !tbaa !13
  %26 = icmp sgt i32 %25, %23
  %27 = sext i32 %23 to i64
  %28 = getelementptr inbounds i8, ptr %7, i64 %27
  %29 = select i1 %26, ptr %28, ptr null
  %30 = add nsw i64 %indvars.iv, -4
  %31 = getelementptr inbounds [6 x ptr], ptr %21, i64 0, i64 %30
  store ptr %29, ptr %31, align 8, !tbaa !15
  %exitcond.not = icmp eq i64 %indvars.iv.next, 10
  br i1 %exitcond.not, label %.loopexit, label %22, !llvm.loop !17

.loopexit:                                        ; preds = %22, %10, %11, %2
  ret void
}